target datalayout = "e-m:e-p270:32:32-p271:32:32-p272:64:64-i64:64-i128:128-f80:128-n8:16:32:64-S128"
target triple = "x86_64-pc-linux-gnu"

%"class.std::__cxx11::basic_string" = type { %"struct.std::__cxx11::basic_string<char>::_Alloc_hider", i64, %union.anon.4 }
%"struct.std::__cxx11::basic_string<char>::_Alloc_hider" = type { ptr }
%union.anon.4 = type { i64, [8 x i8] }

; Function Attrs: mustprogress nounwind uwtable
define available_externally noundef ptr @_ZNKSt7__cxx1112basic_stringIcSt11char_traitsIcESaIcEE7_M_dataEv(ptr noundef nonnull align 8 dereferenceable(32) %0) #0 align 2 {
  %2 = alloca ptr, align 8
  store ptr %0, ptr %2, align 8, !tbaa !46
  %3 = load ptr, ptr %2, align 8
  %4 = getelementptr inbounds nuw %"class.std::__cxx11::basic_string", ptr %3, i32 0, i32 0
  %5 = getelementptr inbounds nuw %"struct.std::__cxx11::basic_string<char>::_Alloc_hider", ptr %4, i32 0, i32 0
  %6 = load ptr, ptr %5, align 8, !tbaa !358
  ret ptr %6
}

; Function Attrs: mustprogress nounwind uwtable
define available_externally void @_ZNSt7__cxx1112basic_stringIcSt11char_traitsIcESaIcEE13shrink_to_fitEv(ptr noundef nonnull align 8 dereferenceable(32) %0) #0 align 2 personality ptr @__gxx_personality_v0 {
  %2 = alloca ptr, align 8
  store ptr %0, ptr %2, align 8, !tbaa !46
  %3 = load ptr, ptr %2, align 8
  invoke void @_ZNSt7__cxx1112basic_stringIcSt11char_traitsIcESaIcEE7reserveEv(ptr noundef nonnull align 8 dereferenceable(32) %3)
          to label %4 unwind label %5

4:                                                ; preds = %1
  ret void

5:                                                ; preds = %1
  %6 = landingpad { ptr, i32 }
          catch ptr null
  %7 = extractvalue { ptr, i32 } %6, 0
  call void @__clang_call_terminate(ptr %7) #20
  unreachable
}

; Function Attrs: mustprogress nounwind uwtable
define available_externally noundef nonnull align 1 dereferenceable(1) ptr @_ZNSt7__cxx1112basic_stringIcSt11char_traitsIcESaIcEEixEm(ptr noundef nonnull align 8 dereferenceable(32) %0, i64 noundef %1) #0 align 2 {
  %3 = alloca ptr, align 8
  %4 = alloca i64, align 8
  store ptr %0, ptr %3, align 8, !tbaa !46
  store i64 %1, ptr %4, align 8, !tbaa !85
  %5 = load ptr, ptr %3, align 8
  br label %6

6:                                                ; preds = %2
  br label %7

7:                                                ; preds = %6
  %8 = call noundef ptr @_ZNKSt7__cxx1112basic_stringIcSt11char_traitsIcESaIcEE7_M_dataEv(ptr noundef nonnull align 8 dereferenceable(32) %5)
  %9 = load i64, ptr %4, align 8, !tbaa !85
  %10 = getelementptr inbounds nuw i8, ptr %8, i64 %9
  ret ptr %10
}

; Function Attrs: mustprogress uwtable
define available_externally void @_ZNSt7__cxx1112basic_stringIcSt11char_traitsIcESaIcEE6resizeEm(ptr noundef nonnull align 8 dereferenceable(32) %0, i64 noundef %1) #4 align 2 {
  %3 = alloca ptr, align 8
  %4 = alloca i64, align 8
  store ptr %0, ptr %3, align 8, !tbaa !46
  store i64 %1, ptr %4, align 8, !tbaa !85
  %5 = load ptr, ptr %3, align 8
  %6 = load i64, ptr %4, align 8, !tbaa !85
  call void @_ZNSt7__cxx1112basic_stringIcSt11char_traitsIcESaIcEE6resizeEmc(ptr noundef nonnull align 8 dereferenceable(32) %5, i64 noundef %6, i8 noundef signext 0)
  ret void
}

; Function Attrs: mustprogress uwtable
define hidden void @_ZN10duckdb_re219ConvertRunesToBytesEbPiiPNSt7__cxx1112basic_stringIcSt11char_traitsIcESaIcEEE(i1 noundef zeroext %0, ptr noundef %1, i32 noundef %2, ptr noundef %3) #4 {
  %5 = alloca i8, align 1
  %6 = alloca ptr, align 8
  %7 = alloca i32, align 4
  %8 = alloca ptr, align 8
  %9 = alloca i32, align 4
  %10 = alloca ptr, align 8
  %11 = alloca i32, align 4
  %12 = zext i1 %0 to i8
  store i8 %12, ptr %5, align 1, !tbaa !77
  store ptr %1, ptr %6, align 8, !tbaa !74
  store i32 %2, ptr %7, align 4, !tbaa !29
  store ptr %3, ptr %8, align 8, !tbaa !46
  %13 = load i8, ptr %5, align 1, !tbaa !77, !range !44, !noundef !45
  %14 = trunc i8 %13 to i1
  br i1 %14, label %15, label %39

15:                                               ; preds = %4
  %16 = load ptr, ptr %8, align 8, !tbaa !46
  %17 = load i32, ptr %7, align 4, !tbaa !29
  %18 = sext i32 %17 to i64
  call void @_ZNSt7__cxx1112basic_stringIcSt11char_traitsIcESaIcEE6resizeEm(ptr noundef nonnull align 8 dereferenceable(32) %16, i64 noundef %18)
  call void @llvm.lifetime.start.p0(i64 4, ptr %9) #18
  store i32 0, ptr %9, align 4, !tbaa !29
  br label %19

19:                                               ; preds = %35, %15
  %20 = load i32, ptr %9, align 4, !tbaa !29
  %21 = load i32, ptr %7, align 4, !tbaa !29
  %22 = icmp slt i32 %20, %21
  br i1 %22, label %24, label %23

23:                                               ; preds = %19
  call void @llvm.lifetime.end.p0(i64 4, ptr %9) #18
  br label %38

24:                                               ; preds = %19
  %25 = load ptr, ptr %6, align 8, !tbaa !74
  %26 = load i32, ptr %9, align 4, !tbaa !29
  %27 = sext i32 %26 to i64
  %28 = getelementptr inbounds i32, ptr %25, i64 %27
  %29 = load i32, ptr %28, align 4, !tbaa !29
  %30 = trunc i32 %29 to i8
  %31 = load ptr, ptr %8, align 8, !tbaa !46
  %32 = load i32, ptr %9, align 4, !tbaa !29
  %33 = sext i32 %32 to i64
  %34 = call noundef nonnull align 1 dereferenceable(1) ptr @_ZNSt7__cxx1112basic_stringIcSt11char_traitsIcESaIcEEixEm(ptr noundef nonnull align 8 dereferenceable(32) %31, i64 noundef %33)
  store i8 %30, ptr %34, align 1, !tbaa !20
  br label %35

35:                                               ; preds = %24
  %36 = load i32, ptr %9, align 4, !tbaa !29
  %37 = add nsw i32 %36, 1
  store i32 %37, ptr %9, align 4, !tbaa !29
  br label %19, !llvm.loop !136

38:                                               ; preds = %23
  br label %73

39:                                               ; preds = %4
  %40 = load ptr, ptr %8, align 8, !tbaa !46
  %41 = load i32, ptr %7, align 4, !tbaa !29
  %42 = mul nsw i32 %41, 4
  %43 = sext i32 %42 to i64
  call void @_ZNSt7__cxx1112basic_stringIcSt11char_traitsIcESaIcEE6resizeEm(ptr noundef nonnull align 8 dereferenceable(32) %40, i64 noundef %43)
  call void @llvm.lifetime.start.p0(i64 8, ptr %10) #18
  %44 = load ptr, ptr %8, align 8, !tbaa !46
  %45 = call noundef nonnull align 1 dereferenceable(1) ptr @_ZNSt7__cxx1112basic_stringIcSt11char_traitsIcESaIcEEixEm(ptr noundef nonnull align 8 dereferenceable(32) %44, i64 noundef 0)
  store ptr %45, ptr %10, align 8, !tbaa !23
  call void @llvm.lifetime.start.p0(i64 4, ptr %11) #18
  store i32 0, ptr %11, align 4, !tbaa !29
  br label %46

46:                                               ; preds = %61, %39
  %47 = load i32, ptr %11, align 4, !tbaa !29
  %48 = load i32, ptr %7, align 4, !tbaa !29
  %49 = icmp slt i32 %47, %48
  br i1 %49, label %51, label %50

50:                                               ; preds = %46
  call void @llvm.lifetime.end.p0(i64 4, ptr %11) #18
  br label %64

51:                                               ; preds = %46
  %52 = load ptr, ptr %10, align 8, !tbaa !23
  %53 = load ptr, ptr %6, align 8, !tbaa !74
  %54 = load i32, ptr %11, align 4, !tbaa !29
  %55 = sext i32 %54 to i64
  %56 = getelementptr inbounds i32, ptr %53, i64 %55
  %57 = call noundef i32 @_ZN10duckdb_re210runetocharEPcPKi(ptr noundef %52, ptr noundef %56)
  %58 = load ptr, ptr %10, align 8, !tbaa !23
  %59 = sext i32 %57 to i64
  %60 = getelementptr inbounds i8, ptr %58, i64 %59
  store ptr %60, ptr %10, align 8, !tbaa !23
  br label %61

61:                                               ; preds = %51
  %62 = load i32, ptr %11, align 4, !tbaa !29
  %63 = add nsw i32 %62, 1
  store i32 %63, ptr %11, align 4, !tbaa !29
  br label %46, !llvm.loop !137

64:                                               ; preds = %50
  %65 = load ptr, ptr %8, align 8, !tbaa !46
  %66 = load ptr, ptr %10, align 8, !tbaa !23
  %67 = load ptr, ptr %8, align 8, !tbaa !46
  %68 = call noundef nonnull align 1 dereferenceable(1) ptr @_ZNSt7__cxx1112basic_stringIcSt11char_traitsIcESaIcEEixEm(ptr noundef nonnull align 8 dereferenceable(32) %67, i64 noundef 0)
  %69 = ptrtoint ptr %66 to i64
  %70 = ptrtoint ptr %68 to i64
  %71 = sub i64 %69, %70
  call void @_ZNSt7__cxx1112basic_stringIcSt11char_traitsIcESaIcEE6resizeEm(ptr noundef nonnull align 8 dereferenceable(32) %65, i64 noundef %71)
  %72 = load ptr, ptr %8, align 8, !tbaa !46
  call void @_ZNSt7__cxx1112basic_stringIcSt11char_traitsIcESaIcEE13shrink_to_fitEv(ptr noundef nonnull align 8 dereferenceable(32) %72) #18
  call void @llvm.lifetime.end.p0(i64 8, ptr %10) #18
  br label %73

73:                                               ; preds = %64, %38
  ret void
}