; Function Attrs: mustprogress uwtable
define hidden void @_ZN10duckdb_re219ConvertRunesToBytesEbPiiPNSt7__cxx1112basic_stringIcSt11char_traitsIcESaIcEEE(i1 noundef zeroext %0, ptr noundef %1, i32 noundef %2, ptr noundef %3) local_unnamed_addr #7 personality ptr @__gxx_personality_v0 {
  br i1 %0, label %5, label %13

5:                                                ; preds = %4
  %6 = sext i32 %2 to i64
  tail call void @_ZNSt7__cxx1112basic_stringIcSt11char_traitsIcESaIcEE6resizeEmc(ptr noundef nonnull align 8 dereferenceable(32) %3, i64 noundef %6, i8 noundef signext 0)
  %7 = icmp sgt i32 %2, 0
  br i1 %7, label %.lr.ph29.preheader, label %_ZNSt7__cxx1112basic_stringIcSt11char_traitsIcESaIcEE13shrink_to_fitEv.exit

.lr.ph29.preheader:                               ; preds = %5
  %wide.trip.count34 = zext nneg i32 %2 to i64
  br label %.lr.ph29

.lr.ph29:                                         ; preds = %.lr.ph29.preheader, %.lr.ph29
  %indvars.iv31 = phi i64 [ 0, %.lr.ph29.preheader ], [ %indvars.iv.next32, %.lr.ph29 ]
  %8 = getelementptr inbounds nuw i32, ptr %1, i64 %indvars.iv31
  %9 = load i32, ptr %8, align 4, !tbaa !42
  %10 = trunc i32 %9 to i8
  %11 = load ptr, ptr %3, align 8, !tbaa !30
  %12 = getelementptr inbounds nuw i8, ptr %11, i64 %indvars.iv31
  store i8 %10, ptr %12, align 1, !tbaa !32
  %indvars.iv.next32 = add nuw nsw i64 %indvars.iv31, 1
  %exitcond35.not = icmp eq i64 %indvars.iv.next32, %wide.trip.count34
  br i1 %exitcond35.not, label %_ZNSt7__cxx1112basic_stringIcSt11char_traitsIcESaIcEE13shrink_to_fitEv.exit, label %.lr.ph29, !llvm.loop !108

13:                                               ; preds = %4
  %14 = shl nsw i32 %2, 2
  %15 = sext i32 %14 to i64
  tail call void @_ZNSt7__cxx1112basic_stringIcSt11char_traitsIcESaIcEE6resizeEmc(ptr noundef nonnull align 8 dereferenceable(32) %3, i64 noundef %15, i8 noundef signext 0)
  %16 = load ptr, ptr %3, align 8, !tbaa !30
  %17 = icmp sgt i32 %2, 0
  br i1 %17, label %.lr.ph.preheader, label %._crit_edge

.lr.ph.preheader:                                 ; preds = %13
  %wide.trip.count = zext nneg i32 %2 to i64
  br label %.lr.ph

._crit_edge.loopexit:                             ; preds = %.lr.ph
  %.pre = load ptr, ptr %3, align 8, !tbaa !30
  br label %._crit_edge

._crit_edge:                                      ; preds = %._crit_edge.loopexit, %13
  %18 = phi ptr [ %16, %13 ], [ %.pre, %._crit_edge.loopexit ]
  %.023.lcssa = phi ptr [ %16, %13 ], [ %28, %._crit_edge.loopexit ]
  %19 = ptrtoint ptr %.023.lcssa to i64
  %20 = ptrtoint ptr %18 to i64
  %21 = sub i64 %19, %20
  tail call void @_ZNSt7__cxx1112basic_stringIcSt11char_traitsIcESaIcEE6resizeEmc(ptr noundef nonnull align 8 dereferenceable(32) %3, i64 noundef %21, i8 noundef signext 0)
  invoke void @_ZNSt7__cxx1112basic_stringIcSt11char_traitsIcESaIcEE7reserveEv(ptr noundef nonnull align 8 dereferenceable(32) %3)
          to label %_ZNSt7__cxx1112basic_stringIcSt11char_traitsIcESaIcEE13shrink_to_fitEv.exit unwind label %22

22:                                               ; preds = %._crit_edge
  %23 = landingpad { ptr, i32 }
          catch ptr null
  %24 = extractvalue { ptr, i32 } %23, 0
  tail call void @__clang_call_terminate(ptr %24) #29
  unreachable

.lr.ph:                                           ; preds = %.lr.ph.preheader, %.lr.ph
  %indvars.iv = phi i64 [ 0, %.lr.ph.preheader ], [ %indvars.iv.next, %.lr.ph ]
  %.02325 = phi ptr [ %16, %.lr.ph.preheader ], [ %28, %.lr.ph ]
  %25 = getelementptr inbounds nuw i32, ptr %1, i64 %indvars.iv
  %26 = tail call noundef i32 @_ZN10duckdb_re210runetocharEPcPKi(ptr noundef %.02325, ptr noundef %25)
  %27 = sext i32 %26 to i64
  %28 = getelementptr inbounds i8, ptr %.02325, i64 %27
  %indvars.iv.next = add nuw nsw i64 %indvars.iv, 1
  %exitcond.not = icmp eq i64 %indvars.iv.next, %wide.trip.count
  br i1 %exitcond.not, label %._crit_edge.loopexit, label %.lr.ph, !llvm.loop !109

_ZNSt7__cxx1112basic_stringIcSt11char_traitsIcESaIcEE13shrink_to_fitEv.exit: ; preds = %.lr.ph29, %5, %._crit_edge
  ret void
}